; Function Attrs: mustprogress uwtable
define hidden void @_ZN3ue213ComponentByte13notePositionsERNS_18GlushkovBuildStateE(ptr nocapture noundef nonnull align 8 dereferenceable(20) %this, ptr noundef nonnull align 8 dereferenceable(8) %bs) unnamed_addr #0 align 2 {
entry:
  %ref.tmp = alloca %"class.ue2::CharReach", align 8
  %vtable = load ptr, ptr %bs, align 8
  %vfn = getelementptr inbounds i8, ptr %vtable, i64 16
  %0 = load ptr, ptr %vfn, align 8
  %call = tail call noundef nonnull align 8 dereferenceable(8) ptr %0(ptr noundef nonnull align 8 dereferenceable(8) %bs)
  %vtable2 = load ptr, ptr %call, align 8
  %vfn3 = getelementptr inbounds i8, ptr %vtable2, i64 16
  %1 = load ptr, ptr %vfn3, align 8
  %call4 = tail call noundef i32 %1(ptr noundef nonnull align 8 dereferenceable(8) %call, i64 noundef 1)
  %position = getelementptr inbounds i8, ptr %this, i64 16
  store i32 %call4, ptr %position, align 8
  call void @llvm.memset.p0.i64(ptr noundef nonnull align 8 dereferenceable(32) %ref.tmp, i8 -1, i64 32, i1 false), !alias.scope !5
  %vtable6 = load ptr, ptr %call, align 8
  %vfn7 = getelementptr inbounds i8, ptr %vtable6, i64 72
  %2 = load ptr, ptr %vfn7, align 8
  call void %2(ptr noundef nonnull align 8 dereferenceable(8) %call, i32 noundef %call4, ptr noundef nonnull align 8 dereferenceable(32) %ref.tmp)
  %3 = load i32, ptr %position, align 8
  %vtable9 = load ptr, ptr %call, align 8
  %vfn10 = getelementptr inbounds i8, ptr %vtable9, i64 64
  %4 = load ptr, ptr %vfn10, align 8
  call void %4(ptr noundef nonnull align 8 dereferenceable(8) %call, i32 noundef %3, i32 noundef 0)
  ret void
}